(dp0
S'primer_length'
p1
I50
sS'alphabet'
p2
c__builtin__
set
p3
((lp4
V!
p5
aV 
p6
aV"
p7
aV%
p8
aV$
p9
aV'
p10
aV-
p11
aV,
p12
aV.
p13
aV1
p14
aV0
p15
aV3
p16
aV2
p17
aV5
p18
aV4
p19
aV7
p20
aV6
p21
aV9
p22
aV8
p23
aV;
p24
aV:
p25
aV?
p26
aVA
p27
aVC
p28
aVB
p29
aVE
p30
aVD
p31
aVG
p32
aVF
p33
aVI
p34
aVH
p35
aVK
p36
aVJ
p37
aVM
p38
aVL
p39
aVO
p40
aVN
p41
aVQ
p42
aVP
p43
aVS
p44
aVR
p45
aVU
p46
aVT
p47
aVW
p48
aVV
p49
aVY
p50
aVX
p51
aV]
p52
aVa
p53
aVc
p54
aVb
p55
aVe
p56
aVd
p57
aVg
p58
aVf
p59
aVi
p60
aVh
p61
aVk
p62
aVj
p63
aVm
p64
aVl
p65
aVo
p66
aVn
p67
aVq
p68
aVp
p69
aVs
p70
aVr
p71
aVu
p72
aVt
p73
aVw
p74
aVv
p75
aVy
p76
aVx
p77
aVz
p78
atp79
Rp80
sS'alphabet_indices'
p81
(dp82
g5
I0
sg6
I1
sg7
I2
sg8
I3
sg9
I4
sg10
I5
sg11
I6
sg12
I7
sg13
I8
sg14
I9
sg15
I10
sg16
I11
sg17
I12
sg18
I13
sg19
I14
sg20
I15
sg21
I16
sg22
I17
sg23
I18
sg24
I19
sg25
I20
sg26
I21
sg27
I22
sg28
I23
sg29
I24
sg30
I25
sg31
I26
sg32
I27
sg33
I28
sg34
I29
sg35
I30
sg36
I31
sg37
I32
sg38
I33
sg39
I34
sg40
I35
sg41
I36
sg42
I37
sg43
I38
sg44
I39
sg45
I40
sg46
I41
sg47
I42
sg48
I43
sg49
I44
sg50
I45
sg51
I46
sg52
I47
sg53
I48
sg54
I49
sg55
I50
sg56
I51
sg57
I52
sg58
I53
sg59
I54
sg60
I55
sg61
I56
sg62
I57
sg63
I58
sg64
I59
sg65
I60
sg66
I61
sg67
I62
sg68
I63
sg69
I64
sg70
I65
sg71
I66
sg72
I67
sg73
I68
sg74
I69
sg75
I70
sg76
I71
sg77
I72
sg78
I73
ssS'indices_alphabet'
p83
(dp84
I0
g5
sI1
g6
sI2
g7
sI3
g8
sI4
g9
sI5
g10
sI6
g11
sI7
g12
sI8
g13
sI9
g14
sI10
g15
sI11
g16
sI12
g17
sI13
g18
sI14
g19
sI15
g20
sI16
g21
sI17
g22
sI18
g23
sI19
g24
sI20
g25
sI21
g26
sI22
g27
sI23
g28
sI24
g29
sI25
g30
sI26
g31
sI27
g32
sI28
g33
sI29
g34
sI30
g35
sI31
g36
sI32
g37
sI33
g38
sI34
g39
sI35
g40
sI36
g41
sI37
g42
sI38
g43
sI39
g44
sI40
g45
sI41
g46
sI42
g47
sI43
g48
sI44
g49
sI45
g50
sI46
g51
sI47
g52
sI48
g53
sI49
g54
sI50
g55
sI51
g56
sI52
g57
sI53
g58
sI54
g59
sI55
g60
sI56
g61
sI57
g62
sI58
g63
sI59
g64
sI60
g65
sI61
g66
sI62
g67
sI63
g68
sI64
g69
sI65
g70
sI66
g71
sI67
g72
sI68
g73
sI69
g74
sI70
g75
sI71
g76
sI72
g77
sI73
g78
ss.