(dp0
S'primer_length'
p1
I50
sS'alphabet'
p2
c__builtin__
set
p3
((lp4
V 
p5
aV"
p6
aV$
p7
aV,
p8
aV.
p9
aV0
p10
aV2
p11
aV4
p12
aV6
p13
aV8
p14
aV:
p15
aVB
p16
aVD
p17
aVF
p18
aVH
p19
aVJ
p20
aVL
p21
aVN
p22
aVP
p23
aVR
p24
aVT
p25
aVV
p26
aVX
p27
aS'Z'
p28
aVb
p29
aVd
p30
aVf
p31
aVh
p32
aVj
p33
aVl
p34
aVn
p35
aVp
p36
aVr
p37
aVt
p38
aVv
p39
aVx
p40
aVz
p41
aV!
p42
aV%
p43
aV'
p44
aV-
p45
aV1
p46
aV3
p47
aV5
p48
aV7
p49
aV9
p50
aV;
p51
aV?
p52
aVA
p53
aVC
p54
aVE
p55
aVG
p56
aVI
p57
aVK
p58
aVM
p59
aVO
p60
aVQ
p61
aVS
p62
aVU
p63
aVW
p64
aVY
p65
aV]
p66
aVa
p67
aVc
p68
aVe
p69
aVg
p70
aVi
p71
aVk
p72
aVm
p73
aVo
p74
aVq
p75
aVs
p76
aVu
p77
aVw
p78
aVy
p79
atp80
Rp81
sS'alphabet_indices'
p82
(dp83
g42
I37
sg5
I0
sg6
I1
sg43
I38
sg7
I2
sg44
I39
sg45
I40
sg8
I3
sg9
I4
sg46
I41
sg10
I5
sg47
I42
sg11
I6
sg48
I43
sg12
I7
sg49
I44
sg13
I8
sg50
I45
sg14
I9
sg51
I46
sg15
I10
sg52
I47
sg53
I48
sg54
I49
sg16
I11
sg55
I50
sg17
I12
sg56
I51
sg18
I13
sg57
I52
sg19
I14
sg58
I53
sg20
I15
sg59
I54
sg21
I16
sg60
I55
sg22
I17
sg61
I56
sg23
I18
sg62
I57
sg24
I19
sg63
I58
sg25
I20
sg64
I59
sg26
I21
sg65
I60
sg27
I22
sg28
I23
sg66
I61
sg67
I62
sg68
I63
sg29
I24
sg69
I64
sg30
I25
sg70
I65
sg31
I26
sg71
I66
sg32
I27
sg72
I67
sg33
I28
sg73
I68
sg34
I29
sg74
I69
sg35
I30
sg75
I70
sg36
I31
sg76
I71
sg37
I32
sg77
I72
sg38
I33
sg78
I73
sg39
I34
sg79
I74
sg40
I35
sg41
I36
ssS'indices_alphabet'
p84
(dp85
I0
g5
sI1
g6
sI2
g7
sI3
g8
sI4
g9
sI5
g10
sI6
g11
sI7
g12
sI8
g13
sI9
g14
sI10
g15
sI11
g16
sI12
g17
sI13
g18
sI14
g19
sI15
g20
sI16
g21
sI17
g22
sI18
g23
sI19
g24
sI20
g25
sI21
g26
sI22
g27
sI23
g28
sI24
g29
sI25
g30
sI26
g31
sI27
g32
sI28
g33
sI29
g34
sI30
g35
sI31
g36
sI32
g37
sI33
g38
sI34
g39
sI35
g40
sI36
g41
sI37
g42
sI38
g43
sI39
g44
sI40
g45
sI41
g46
sI42
g47
sI43
g48
sI44
g49
sI45
g50
sI46
g51
sI47
g52
sI48
g53
sI49
g54
sI50
g55
sI51
g56
sI52
g57
sI53
g58
sI54
g59
sI55
g60
sI56
g61
sI57
g62
sI58
g63
sI59
g64
sI60
g65
sI61
g66
sI62
g67
sI63
g68
sI64
g69
sI65
g70
sI66
g71
sI67
g72
sI68
g73
sI69
g74
sI70
g75
sI71
g76
sI72
g77
sI73
g78
sI74
g79
ss.